target datalayout = "e-m:e-p270:32:32-p271:32:32-p272:64:64-i64:64-i128:128-f80:128-n8:16:32:64-S128"
target triple = "x86_64-pc-linux-gnu"

%struct.AVFilterContext = type { ptr, ptr, ptr, ptr, ptr, i32, ptr, ptr, i32, ptr, ptr, i32, i32, ptr, ptr, ptr, ptr, i32, ptr, i32, i32 }
%struct.MCompandContext = type { ptr, ptr, i32, ptr, ptr, ptr, ptr, i32, i64 }
%struct.CompBand = type { %struct.CompandT, ptr, ptr, ptr, double, double, %struct.Crossover, ptr, i64, i64, i64 }
%struct.CompandT = type { ptr, i32, double, double, double, double }
%struct.Crossover = type { ptr, i64, [15 x double] }

; Function Attrs: cold nounwind optsize uwtable
define internal void @uninit(ptr noundef %0) #0 {
  %2 = alloca ptr, align 8
  %3 = alloca ptr, align 8
  %4 = alloca i32, align 4
  store ptr %0, ptr %2, align 8, !tbaa !4
  call void @llvm.lifetime.start.p0(i64 8, ptr %3) #8
  %5 = load ptr, ptr %2, align 8, !tbaa !4
  %6 = getelementptr inbounds nuw %struct.AVFilterContext, ptr %5, i32 0, i32 9
  %7 = load ptr, ptr %6, align 8, !tbaa !9
  store ptr %7, ptr %3, align 8, !tbaa !22
  call void @llvm.lifetime.start.p0(i64 4, ptr %4) #8
  %8 = load ptr, ptr %3, align 8, !tbaa !22
  %9 = getelementptr inbounds nuw %struct.MCompandContext, ptr %8, i32 0, i32 4
  call void @av_frame_free(ptr noundef %9)
  %10 = load ptr, ptr %3, align 8, !tbaa !22
  %11 = getelementptr inbounds nuw %struct.MCompandContext, ptr %10, i32 0, i32 5
  call void @av_frame_free(ptr noundef %11)
  %12 = load ptr, ptr %3, align 8, !tbaa !22
  %13 = getelementptr inbounds nuw %struct.MCompandContext, ptr %12, i32 0, i32 6
  call void @av_frame_free(ptr noundef %13)
  %14 = load ptr, ptr %3, align 8, !tbaa !22
  %15 = getelementptr inbounds nuw %struct.MCompandContext, ptr %14, i32 0, i32 3
  %16 = load ptr, ptr %15, align 8, !tbaa !24
  %17 = icmp ne ptr %16, null
  br i1 %17, label %18, label %74

18:                                               ; preds = %1
  store i32 0, ptr %4, align 4, !tbaa !29
  br label %19

19:                                               ; preds = %70, %18
  %20 = load i32, ptr %4, align 4, !tbaa !29
  %21 = load ptr, ptr %3, align 8, !tbaa !22
  %22 = getelementptr inbounds nuw %struct.MCompandContext, ptr %21, i32 0, i32 2
  %23 = load i32, ptr %22, align 8, !tbaa !30
  %24 = icmp slt i32 %20, %23
  br i1 %24, label %25, label %73

25:                                               ; preds = %19
  %26 = load ptr, ptr %3, align 8, !tbaa !22
  %27 = getelementptr inbounds nuw %struct.MCompandContext, ptr %26, i32 0, i32 3
  %28 = load ptr, ptr %27, align 8, !tbaa !24
  %29 = load i32, ptr %4, align 4, !tbaa !29
  %30 = sext i32 %29 to i64
  %31 = getelementptr inbounds %struct.CompBand, ptr %28, i64 %30
  %32 = getelementptr inbounds nuw %struct.CompBand, ptr %31, i32 0, i32 1
  call void @av_freep(ptr noundef %32)
  %33 = load ptr, ptr %3, align 8, !tbaa !22
  %34 = getelementptr inbounds nuw %struct.MCompandContext, ptr %33, i32 0, i32 3
  %35 = load ptr, ptr %34, align 8, !tbaa !24
  %36 = load i32, ptr %4, align 4, !tbaa !29
  %37 = sext i32 %36 to i64
  %38 = getelementptr inbounds %struct.CompBand, ptr %35, i64 %37
  %39 = getelementptr inbounds nuw %struct.CompBand, ptr %38, i32 0, i32 2
  call void @av_freep(ptr noundef %39)
  %40 = load ptr, ptr %3, align 8, !tbaa !22
  %41 = getelementptr inbounds nuw %struct.MCompandContext, ptr %40, i32 0, i32 3
  %42 = load ptr, ptr %41, align 8, !tbaa !24
  %43 = load i32, ptr %4, align 4, !tbaa !29
  %44 = sext i32 %43 to i64
  %45 = getelementptr inbounds %struct.CompBand, ptr %42, i64 %44
  %46 = getelementptr inbounds nuw %struct.CompBand, ptr %45, i32 0, i32 3
  call void @av_freep(ptr noundef %46)
  %47 = load ptr, ptr %3, align 8, !tbaa !22
  %48 = getelementptr inbounds nuw %struct.MCompandContext, ptr %47, i32 0, i32 3
  %49 = load ptr, ptr %48, align 8, !tbaa !24
  %50 = load i32, ptr %4, align 4, !tbaa !29
  %51 = sext i32 %50 to i64
  %52 = getelementptr inbounds %struct.CompBand, ptr %49, i64 %51
  %53 = getelementptr inbounds nuw %struct.CompBand, ptr %52, i32 0, i32 0
  %54 = getelementptr inbounds nuw %struct.CompandT, ptr %53, i32 0, i32 0
  call void @av_freep(ptr noundef %54)
  %55 = load ptr, ptr %3, align 8, !tbaa !22
  %56 = getelementptr inbounds nuw %struct.MCompandContext, ptr %55, i32 0, i32 3
  %57 = load ptr, ptr %56, align 8, !tbaa !24
  %58 = load i32, ptr %4, align 4, !tbaa !29
  %59 = sext i32 %58 to i64
  %60 = getelementptr inbounds %struct.CompBand, ptr %57, i64 %59
  %61 = getelementptr inbounds nuw %struct.CompBand, ptr %60, i32 0, i32 6
  %62 = getelementptr inbounds nuw %struct.Crossover, ptr %61, i32 0, i32 0
  call void @av_freep(ptr noundef %62)
  %63 = load ptr, ptr %3, align 8, !tbaa !22
  %64 = getelementptr inbounds nuw %struct.MCompandContext, ptr %63, i32 0, i32 3
  %65 = load ptr, ptr %64, align 8, !tbaa !24
  %66 = load i32, ptr %4, align 4, !tbaa !29
  %67 = sext i32 %66 to i64
  %68 = getelementptr inbounds %struct.CompBand, ptr %65, i64 %67
  %69 = getelementptr inbounds nuw %struct.CompBand, ptr %68, i32 0, i32 7
  call void @av_frame_free(ptr noundef %69)
  br label %70

70:                                               ; preds = %25
  %71 = load i32, ptr %4, align 4, !tbaa !29
  %72 = add nsw i32 %71, 1
  store i32 %72, ptr %4, align 4, !tbaa !29
  br label %19, !llvm.loop !31

73:                                               ; preds = %19
  br label %74

74:                                               ; preds = %73, %1
  %75 = load ptr, ptr %3, align 8, !tbaa !22
  %76 = getelementptr inbounds nuw %struct.MCompandContext, ptr %75, i32 0, i32 3
  call void @av_freep(ptr noundef %76)
  call void @llvm.lifetime.end.p0(i64 4, ptr %4) #8
  call void @llvm.lifetime.end.p0(i64 8, ptr %3) #8
  ret void
}