; Function Attrs: cold nounwind optsize uwtable
define internal void @uninit(ptr noundef readonly captures(none) %0) #0 {
  %2 = getelementptr inbounds nuw i8, ptr %0, i64 72
  %3 = load ptr, ptr %2, align 8, !tbaa !4
  %4 = getelementptr inbounds nuw i8, ptr %3, i64 32
  tail call void @av_frame_free(ptr noundef nonnull %4) #9
  %5 = getelementptr inbounds nuw i8, ptr %3, i64 40
  tail call void @av_frame_free(ptr noundef nonnull %5) #9
  %6 = getelementptr inbounds nuw i8, ptr %3, i64 48
  tail call void @av_frame_free(ptr noundef nonnull %6) #9
  %7 = getelementptr inbounds nuw i8, ptr %3, i64 24
  %8 = load ptr, ptr %7, align 8, !tbaa !20
  %.not = icmp eq ptr %8, null
  br i1 %.not, label %.loopexit, label %.preheader

.preheader:                                       ; preds = %1
  %9 = getelementptr inbounds nuw i8, ptr %3, i64 16
  %10 = load i32, ptr %9, align 8, !tbaa !25
  %11 = icmp sgt i32 %10, 0
  br i1 %11, label %.lr.ph, label %.loopexit

.lr.ph:                                           ; preds = %.preheader, %.lr.ph
  %indvars.iv = phi i64 [ %indvars.iv.next, %.lr.ph ], [ 0, %.preheader ]
  %12 = load ptr, ptr %7, align 8, !tbaa !20
  %13 = getelementptr inbounds nuw %struct.CompBand, ptr %12, i64 %indvars.iv, i32 1
  tail call void @av_freep(ptr noundef nonnull %13) #9
  %14 = load ptr, ptr %7, align 8, !tbaa !20
  %15 = getelementptr inbounds nuw %struct.CompBand, ptr %14, i64 %indvars.iv, i32 2
  tail call void @av_freep(ptr noundef nonnull %15) #9
  %16 = load ptr, ptr %7, align 8, !tbaa !20
  %17 = getelementptr inbounds nuw %struct.CompBand, ptr %16, i64 %indvars.iv, i32 3
  tail call void @av_freep(ptr noundef nonnull %17) #9
  %18 = load ptr, ptr %7, align 8, !tbaa !20
  %19 = getelementptr inbounds nuw %struct.CompBand, ptr %18, i64 %indvars.iv
  tail call void @av_freep(ptr noundef %19) #9
  %20 = load ptr, ptr %7, align 8, !tbaa !20
  %21 = getelementptr inbounds nuw %struct.CompBand, ptr %20, i64 %indvars.iv, i32 6
  tail call void @av_freep(ptr noundef nonnull %21) #9
  %22 = load ptr, ptr %7, align 8, !tbaa !20
  %23 = getelementptr inbounds nuw %struct.CompBand, ptr %22, i64 %indvars.iv, i32 7
  tail call void @av_frame_free(ptr noundef nonnull %23) #9
  %indvars.iv.next = add nuw nsw i64 %indvars.iv, 1
  %24 = load i32, ptr %9, align 8, !tbaa !25
  %25 = sext i32 %24 to i64
  %26 = icmp slt i64 %indvars.iv.next, %25
  br i1 %26, label %.lr.ph, label %.loopexit, !llvm.loop !26

.loopexit:                                        ; preds = %.lr.ph, %.preheader, %1
  tail call void @av_freep(ptr noundef nonnull %7) #9
  ret void
}